; Function Attrs: mustprogress nounwind uwtable
define dso_local void @_ZN4llvm18ExecutionDomainFix4killEi(ptr noundef nonnull align 8 dereferenceable(504) %0, i32 noundef %1) local_unnamed_addr #0 align 2 {
  %3 = getelementptr inbounds nuw i8, ptr %0, i64 360
  %4 = sext i32 %1 to i64
  %5 = load ptr, ptr %3, align 8
  %6 = getelementptr inbounds ptr, ptr %5, i64 %4
  %7 = load ptr, ptr %6, align 8
  %.not = icmp eq ptr %7, null
  br i1 %.not, label %11, label %8

8:                                                ; preds = %2
  tail call void @_ZN4llvm18ExecutionDomainFix7releaseEPNS_11DomainValueE(ptr noundef nonnull align 8 dereferenceable(504) %0, ptr noundef nonnull %7)
  %9 = load ptr, ptr %3, align 8
  %10 = getelementptr inbounds ptr, ptr %9, i64 %4
  store ptr null, ptr %10, align 8
  br label %11

11:                                               ; preds = %2, %8
  ret void
}